target datalayout = "e-m:e-p270:32:32-p271:32:32-p272:64:64-i64:64-i128:128-f80:128-n8:16:32:64-S128"
target triple = "x86_64-pc-linux-gnu"

%union.anon = type { i32 }
%struct.blockProperties_t = type { i32, i32 }
%struct.ZSTDv03_Dctx_s = type { [1025 x i32], [513 x i32], [1025 x i32], ptr, ptr, i64, i32, i32, ptr, i64, [131080 x i8] }

@__const.MEM_isLittleEndian.one = private unnamed_addr constant %union.anon { i32 1 }, align 4

; Function Attrs: nounwind uwtable
define internal i32 @ERR_isError(i64 noundef %0) #0 {
  %2 = alloca i64, align 8
  store i64 %0, ptr %2, align 8, !tbaa !7
  %3 = load i64, ptr %2, align 8, !tbaa !7
  %4 = icmp ugt i64 %3, -120
  %5 = zext i1 %4 to i32
  ret i32 %5
}

; Function Attrs: inlinehint nounwind uwtable
define internal i32 @MEM_read32(ptr noundef %0) #2 {
  %2 = alloca ptr, align 8
  %3 = alloca i32, align 4
  store ptr %0, ptr %2, align 8, !tbaa !3
  call void @llvm.lifetime.start.p0(i64 4, ptr %3) #9
  %4 = load ptr, ptr %2, align 8, !tbaa !3
  call void @llvm.memcpy.p0.p0.i64(ptr align 4 %3, ptr align 1 %4, i64 4, i1 false)
  %5 = load i32, ptr %3, align 4, !tbaa !15
  call void @llvm.lifetime.end.p0(i64 4, ptr %3) #9
  ret i32 %5
}

; Function Attrs: inlinehint nounwind uwtable
define internal i32 @MEM_isLittleEndian() #2 {
  %1 = alloca %union.anon, align 4
  call void @llvm.lifetime.start.p0(i64 4, ptr %1) #9
  call void @llvm.memcpy.p0.p0.i64(ptr align 4 %1, ptr align 4 @__const.MEM_isLittleEndian.one, i64 4, i1 false)
  %2 = getelementptr inbounds [4 x i8], ptr %1, i64 0, i64 0
  %3 = load i8, ptr %2, align 4, !tbaa !19
  %4 = zext i8 %3 to i32
  call void @llvm.lifetime.end.p0(i64 4, ptr %1) #9
  ret i32 %4
}

; Function Attrs: nounwind uwtable
define internal i64 @ZSTD_copyUncompressedBlock(ptr noundef %0, i64 noundef %1, ptr noundef %2, i64 noundef %3) #0 {
  %5 = alloca i64, align 8
  %6 = alloca ptr, align 8
  %7 = alloca i64, align 8
  %8 = alloca ptr, align 8
  %9 = alloca i64, align 8
  store ptr %0, ptr %6, align 8, !tbaa !3
  store i64 %1, ptr %7, align 8, !tbaa !7
  store ptr %2, ptr %8, align 8, !tbaa !3
  store i64 %3, ptr %9, align 8, !tbaa !7
  %10 = load i64, ptr %9, align 8, !tbaa !7
  %11 = load i64, ptr %7, align 8, !tbaa !7
  %12 = icmp ugt i64 %10, %11
  br i1 %12, label %13, label %14

13:                                               ; preds = %4
  store i64 -70, ptr %5, align 8
  br label %23

14:                                               ; preds = %4
  %15 = load i64, ptr %9, align 8, !tbaa !7
  %16 = icmp ugt i64 %15, 0
  br i1 %16, label %17, label %21

17:                                               ; preds = %14
  %18 = load ptr, ptr %6, align 8, !tbaa !3
  %19 = load ptr, ptr %8, align 8, !tbaa !3
  %20 = load i64, ptr %9, align 8, !tbaa !7
  call void @llvm.memcpy.p0.p0.i64(ptr align 1 %18, ptr align 1 %19, i64 %20, i1 false)
  br label %21

21:                                               ; preds = %17, %14
  %22 = load i64, ptr %9, align 8, !tbaa !7
  store i64 %22, ptr %5, align 8
  br label %23

23:                                               ; preds = %21, %13
  %24 = load i64, ptr %5, align 8
  ret i64 %24
}

; Function Attrs: nounwind uwtable
define internal i32 @ZSTD_isError(i64 noundef %0) #0 {
  %2 = alloca i64, align 8
  store i64 %0, ptr %2, align 8, !tbaa !7
  %3 = load i64, ptr %2, align 8, !tbaa !7
  %4 = call i32 @ERR_isError(i64 noundef %3)
  ret i32 %4
}

; Function Attrs: nounwind uwtable
define internal i64 @ZSTD_getcBlockSize(ptr noundef %0, i64 noundef %1, ptr noundef %2) #0 {
  %4 = alloca i64, align 8
  %5 = alloca ptr, align 8
  %6 = alloca i64, align 8
  %7 = alloca ptr, align 8
  %8 = alloca ptr, align 8
  %9 = alloca i8, align 1
  %10 = alloca i32, align 4
  %11 = alloca i32, align 4
  store ptr %0, ptr %5, align 8, !tbaa !3
  store i64 %1, ptr %6, align 8, !tbaa !7
  store ptr %2, ptr %7, align 8, !tbaa !3
  call void @llvm.lifetime.start.p0(i64 8, ptr %8) #9
  %12 = load ptr, ptr %5, align 8, !tbaa !3
  store ptr %12, ptr %8, align 8, !tbaa !13
  call void @llvm.lifetime.start.p0(i64 1, ptr %9) #9
  call void @llvm.lifetime.start.p0(i64 4, ptr %10) #9
  %13 = load i64, ptr %6, align 8, !tbaa !7
  %14 = icmp ult i64 %13, 3
  br i1 %14, label %15, label %16

15:                                               ; preds = %3
  store i64 -72, ptr %4, align 8
  store i32 1, ptr %11, align 4
  br label %66

16:                                               ; preds = %3
  %17 = load ptr, ptr %8, align 8, !tbaa !13
  %18 = load i8, ptr %17, align 1, !tbaa !19
  store i8 %18, ptr %9, align 1, !tbaa !19
  %19 = load ptr, ptr %8, align 8, !tbaa !13
  %20 = getelementptr inbounds i8, ptr %19, i64 2
  %21 = load i8, ptr %20, align 1, !tbaa !19
  %22 = zext i8 %21 to i32
  %23 = load ptr, ptr %8, align 8, !tbaa !13
  %24 = getelementptr inbounds i8, ptr %23, i64 1
  %25 = load i8, ptr %24, align 1, !tbaa !19
  %26 = zext i8 %25 to i32
  %27 = shl i32 %26, 8
  %28 = add nsw i32 %22, %27
  %29 = load ptr, ptr %8, align 8, !tbaa !13
  %30 = getelementptr inbounds i8, ptr %29, i64 0
  %31 = load i8, ptr %30, align 1, !tbaa !19
  %32 = zext i8 %31 to i32
  %33 = and i32 %32, 7
  %34 = shl i32 %33, 16
  %35 = add nsw i32 %28, %34
  store i32 %35, ptr %10, align 4, !tbaa !15
  %36 = load i8, ptr %9, align 1, !tbaa !19
  %37 = zext i8 %36 to i32
  %38 = ashr i32 %37, 6
  %39 = load ptr, ptr %7, align 8, !tbaa !3
  %40 = getelementptr inbounds nuw %struct.blockProperties_t, ptr %39, i32 0, i32 0
  store i32 %38, ptr %40, align 4, !tbaa !20
  %41 = load ptr, ptr %7, align 8, !tbaa !3
  %42 = getelementptr inbounds nuw %struct.blockProperties_t, ptr %41, i32 0, i32 0
  %43 = load i32, ptr %42, align 4, !tbaa !20
  %44 = icmp eq i32 %43, 2
  br i1 %44, label %45, label %47

45:                                               ; preds = %16
  %46 = load i32, ptr %10, align 4, !tbaa !15
  br label %48

47:                                               ; preds = %16
  br label %48

48:                                               ; preds = %47, %45
  %49 = phi i32 [ %46, %45 ], [ 0, %47 ]
  %50 = load ptr, ptr %7, align 8, !tbaa !3
  %51 = getelementptr inbounds nuw %struct.blockProperties_t, ptr %50, i32 0, i32 1
  store i32 %49, ptr %51, align 4, !tbaa !22
  %52 = load ptr, ptr %7, align 8, !tbaa !3
  %53 = getelementptr inbounds nuw %struct.blockProperties_t, ptr %52, i32 0, i32 0
  %54 = load i32, ptr %53, align 4, !tbaa !20
  %55 = icmp eq i32 %54, 3
  br i1 %55, label %56, label %57

56:                                               ; preds = %48
  store i64 0, ptr %4, align 8
  store i32 1, ptr %11, align 4
  br label %66

57:                                               ; preds = %48
  %58 = load ptr, ptr %7, align 8, !tbaa !3
  %59 = getelementptr inbounds nuw %struct.blockProperties_t, ptr %58, i32 0, i32 0
  %60 = load i32, ptr %59, align 4, !tbaa !20
  %61 = icmp eq i32 %60, 2
  br i1 %61, label %62, label %63

62:                                               ; preds = %57
  store i64 1, ptr %4, align 8
  store i32 1, ptr %11, align 4
  br label %66

63:                                               ; preds = %57
  %64 = load i32, ptr %10, align 4, !tbaa !15
  %65 = zext i32 %64 to i64
  store i64 %65, ptr %4, align 8
  store i32 1, ptr %11, align 4
  br label %66

66:                                               ; preds = %63, %62, %56, %15
  call void @llvm.lifetime.end.p0(i64 4, ptr %10) #9
  call void @llvm.lifetime.end.p0(i64 1, ptr %9) #9
  call void @llvm.lifetime.end.p0(i64 8, ptr %8) #9
  %67 = load i64, ptr %4, align 8
  ret i64 %67
}

; Function Attrs: inlinehint nounwind uwtable
define internal i32 @MEM_readLE32(ptr noundef %0) #2 {
  %2 = alloca i32, align 4
  %3 = alloca ptr, align 8
  %4 = alloca ptr, align 8
  store ptr %0, ptr %3, align 8, !tbaa !3
  %5 = call i32 @MEM_isLittleEndian()
  %6 = icmp ne i32 %5, 0
  br i1 %6, label %7, label %10

7:                                                ; preds = %1
  %8 = load ptr, ptr %3, align 8, !tbaa !3
  %9 = call i32 @MEM_read32(ptr noundef %8)
  store i32 %9, ptr %2, align 4
  br label %34

10:                                               ; preds = %1
  call void @llvm.lifetime.start.p0(i64 8, ptr %4) #9
  %11 = load ptr, ptr %3, align 8, !tbaa !3
  store ptr %11, ptr %4, align 8, !tbaa !13
  %12 = load ptr, ptr %4, align 8, !tbaa !13
  %13 = getelementptr inbounds i8, ptr %12, i64 0
  %14 = load i8, ptr %13, align 1, !tbaa !19
  %15 = zext i8 %14 to i32
  %16 = load ptr, ptr %4, align 8, !tbaa !13
  %17 = getelementptr inbounds i8, ptr %16, i64 1
  %18 = load i8, ptr %17, align 1, !tbaa !19
  %19 = zext i8 %18 to i32
  %20 = shl i32 %19, 8
  %21 = add i32 %15, %20
  %22 = load ptr, ptr %4, align 8, !tbaa !13
  %23 = getelementptr inbounds i8, ptr %22, i64 2
  %24 = load i8, ptr %23, align 1, !tbaa !19
  %25 = zext i8 %24 to i32
  %26 = shl i32 %25, 16
  %27 = add i32 %21, %26
  %28 = load ptr, ptr %4, align 8, !tbaa !13
  %29 = getelementptr inbounds i8, ptr %28, i64 3
  %30 = load i8, ptr %29, align 1, !tbaa !19
  %31 = zext i8 %30 to i32
  %32 = shl i32 %31, 24
  %33 = add i32 %27, %32
  store i32 %33, ptr %2, align 4
  call void @llvm.lifetime.end.p0(i64 8, ptr %4) #9
  br label %34

34:                                               ; preds = %10, %7
  %35 = load i32, ptr %2, align 4
  ret i32 %35
}

; Function Attrs: nounwind uwtable
define internal i64 @ZSTD_decompressContinue(ptr noundef %0, ptr noundef %1, i64 noundef %2, ptr noundef %3, i64 noundef %4) #0 {
  %6 = alloca i64, align 8
  %7 = alloca ptr, align 8
  %8 = alloca ptr, align 8
  %9 = alloca i64, align 8
  %10 = alloca ptr, align 8
  %11 = alloca i64, align 8
  %12 = alloca i32, align 4
  %13 = alloca i32, align 4
  %14 = alloca %struct.blockProperties_t, align 4
  %15 = alloca i64, align 8
  %16 = alloca i64, align 8
  store ptr %0, ptr %7, align 8, !tbaa !25
  store ptr %1, ptr %8, align 8, !tbaa !3
  store i64 %2, ptr %9, align 8, !tbaa !7
  store ptr %3, ptr %10, align 8, !tbaa !3
  store i64 %4, ptr %11, align 8, !tbaa !7
  %17 = load i64, ptr %11, align 8, !tbaa !7
  %18 = load ptr, ptr %7, align 8, !tbaa !25
  %19 = getelementptr inbounds nuw %struct.ZSTDv03_Dctx_s, ptr %18, i32 0, i32 5
  %20 = load i64, ptr %19, align 8, !tbaa !27
  %21 = icmp ne i64 %17, %20
  br i1 %21, label %22, label %23

22:                                               ; preds = %5
  store i64 -72, ptr %6, align 8
  br label %122

23:                                               ; preds = %5
  %24 = load ptr, ptr %8, align 8, !tbaa !3
  %25 = load ptr, ptr %7, align 8, !tbaa !25
  %26 = getelementptr inbounds nuw %struct.ZSTDv03_Dctx_s, ptr %25, i32 0, i32 3
  %27 = load ptr, ptr %26, align 8, !tbaa !29
  %28 = icmp ne ptr %24, %27
  br i1 %28, label %29, label %33

29:                                               ; preds = %23
  %30 = load ptr, ptr %8, align 8, !tbaa !3
  %31 = load ptr, ptr %7, align 8, !tbaa !25
  %32 = getelementptr inbounds nuw %struct.ZSTDv03_Dctx_s, ptr %31, i32 0, i32 4
  store ptr %30, ptr %32, align 8, !tbaa !23
  br label %33

33:                                               ; preds = %29, %23
  %34 = load ptr, ptr %7, align 8, !tbaa !25
  %35 = getelementptr inbounds nuw %struct.ZSTDv03_Dctx_s, ptr %34, i32 0, i32 7
  %36 = load i32, ptr %35, align 4, !tbaa !28
  %37 = icmp eq i32 %36, 0
  br i1 %37, label %38, label %50

38:                                               ; preds = %33
  call void @llvm.lifetime.start.p0(i64 4, ptr %12) #9
  %39 = load ptr, ptr %10, align 8, !tbaa !3
  %40 = call i32 @MEM_readLE32(ptr noundef %39)
  store i32 %40, ptr %12, align 4, !tbaa !15
  %41 = load i32, ptr %12, align 4, !tbaa !15
  %42 = icmp ne i32 %41, -47205085
  br i1 %42, label %43, label %44

43:                                               ; preds = %38
  store i64 -10, ptr %6, align 8
  store i32 1, ptr %13, align 4
  br label %49

44:                                               ; preds = %38
  %45 = load ptr, ptr %7, align 8, !tbaa !25
  %46 = getelementptr inbounds nuw %struct.ZSTDv03_Dctx_s, ptr %45, i32 0, i32 7
  store i32 1, ptr %46, align 4, !tbaa !28
  %47 = load ptr, ptr %7, align 8, !tbaa !25
  %48 = getelementptr inbounds nuw %struct.ZSTDv03_Dctx_s, ptr %47, i32 0, i32 5
  store i64 3, ptr %48, align 8, !tbaa !27
  store i64 0, ptr %6, align 8
  store i32 1, ptr %13, align 4
  br label %49

49:                                               ; preds = %44, %43
  call void @llvm.lifetime.end.p0(i64 4, ptr %12) #9
  br label %122

50:                                               ; preds = %33
  %51 = load ptr, ptr %7, align 8, !tbaa !25
  %52 = getelementptr inbounds nuw %struct.ZSTDv03_Dctx_s, ptr %51, i32 0, i32 7
  %53 = load i32, ptr %52, align 4, !tbaa !28
  %54 = icmp eq i32 %53, 1
  br i1 %54, label %55, label %84

55:                                               ; preds = %50
  call void @llvm.lifetime.start.p0(i64 8, ptr %14) #9
  call void @llvm.lifetime.start.p0(i64 8, ptr %15) #9
  %56 = load ptr, ptr %10, align 8, !tbaa !3
  %57 = call i64 @ZSTD_getcBlockSize(ptr noundef %56, i64 noundef 3, ptr noundef %14)
  store i64 %57, ptr %15, align 8, !tbaa !7
  %58 = load i64, ptr %15, align 8, !tbaa !7
  %59 = call i32 @ZSTD_isError(i64 noundef %58)
  %60 = icmp ne i32 %59, 0
  br i1 %60, label %61, label %63

61:                                               ; preds = %55
  %62 = load i64, ptr %15, align 8, !tbaa !7
  store i64 %62, ptr %6, align 8
  store i32 1, ptr %13, align 4
  br label %83

63:                                               ; preds = %55
  %64 = getelementptr inbounds nuw %struct.blockProperties_t, ptr %14, i32 0, i32 0
  %65 = load i32, ptr %64, align 4, !tbaa !20
  %66 = icmp eq i32 %65, 3
  br i1 %66, label %67, label %72

67:                                               ; preds = %63
  %68 = load ptr, ptr %7, align 8, !tbaa !25
  %69 = getelementptr inbounds nuw %struct.ZSTDv03_Dctx_s, ptr %68, i32 0, i32 5
  store i64 0, ptr %69, align 8, !tbaa !27
  %70 = load ptr, ptr %7, align 8, !tbaa !25
  %71 = getelementptr inbounds nuw %struct.ZSTDv03_Dctx_s, ptr %70, i32 0, i32 7
  store i32 0, ptr %71, align 4, !tbaa !28
  br label %82

72:                                               ; preds = %63
  %73 = load i64, ptr %15, align 8, !tbaa !7
  %74 = load ptr, ptr %7, align 8, !tbaa !25
  %75 = getelementptr inbounds nuw %struct.ZSTDv03_Dctx_s, ptr %74, i32 0, i32 5
  store i64 %73, ptr %75, align 8, !tbaa !27
  %76 = getelementptr inbounds nuw %struct.blockProperties_t, ptr %14, i32 0, i32 0
  %77 = load i32, ptr %76, align 4, !tbaa !20
  %78 = load ptr, ptr %7, align 8, !tbaa !25
  %79 = getelementptr inbounds nuw %struct.ZSTDv03_Dctx_s, ptr %78, i32 0, i32 6
  store i32 %77, ptr %79, align 8, !tbaa !30
  %80 = load ptr, ptr %7, align 8, !tbaa !25
  %81 = getelementptr inbounds nuw %struct.ZSTDv03_Dctx_s, ptr %80, i32 0, i32 7
  store i32 2, ptr %81, align 4, !tbaa !28
  br label %82

82:                                               ; preds = %72, %67
  store i64 0, ptr %6, align 8
  store i32 1, ptr %13, align 4
  br label %83

83:                                               ; preds = %82, %61
  call void @llvm.lifetime.end.p0(i64 8, ptr %15) #9
  call void @llvm.lifetime.end.p0(i64 8, ptr %14) #9
  br label %122

84:                                               ; preds = %50
  call void @llvm.lifetime.start.p0(i64 8, ptr %16) #9
  %85 = load ptr, ptr %7, align 8, !tbaa !25
  %86 = getelementptr inbounds nuw %struct.ZSTDv03_Dctx_s, ptr %85, i32 0, i32 6
  %87 = load i32, ptr %86, align 8, !tbaa !30
  switch i32 %87, label %103 [
    i32 0, label %88
    i32 1, label %95
    i32 2, label %101
    i32 3, label %102
  ]

88:                                               ; preds = %84
  %89 = load ptr, ptr %7, align 8, !tbaa !25
  %90 = load ptr, ptr %8, align 8, !tbaa !3
  %91 = load i64, ptr %9, align 8, !tbaa !7
  %92 = load ptr, ptr %10, align 8, !tbaa !3
  %93 = load i64, ptr %11, align 8, !tbaa !7
  %94 = call i64 @ZSTD_decompressBlock(ptr noundef %89, ptr noundef %90, i64 noundef %91, ptr noundef %92, i64 noundef %93)
  store i64 %94, ptr %16, align 8, !tbaa !7
  br label %104

95:                                               ; preds = %84
  %96 = load ptr, ptr %8, align 8, !tbaa !3
  %97 = load i64, ptr %9, align 8, !tbaa !7
  %98 = load ptr, ptr %10, align 8, !tbaa !3
  %99 = load i64, ptr %11, align 8, !tbaa !7
  %100 = call i64 @ZSTD_copyUncompressedBlock(ptr noundef %96, i64 noundef %97, ptr noundef %98, i64 noundef %99)
  store i64 %100, ptr %16, align 8, !tbaa !7
  br label %104

101:                                              ; preds = %84
  store i64 -1, ptr %6, align 8
  store i32 1, ptr %13, align 4
  br label %121

102:                                              ; preds = %84
  store i64 0, ptr %16, align 8, !tbaa !7
  br label %104

103:                                              ; preds = %84
  store i64 -1, ptr %6, align 8
  store i32 1, ptr %13, align 4
  br label %121

104:                                              ; preds = %102, %95, %88
  %105 = load ptr, ptr %7, align 8, !tbaa !25
  %106 = getelementptr inbounds nuw %struct.ZSTDv03_Dctx_s, ptr %105, i32 0, i32 7
  store i32 1, ptr %106, align 4, !tbaa !28
  %107 = load ptr, ptr %7, align 8, !tbaa !25
  %108 = getelementptr inbounds nuw %struct.ZSTDv03_Dctx_s, ptr %107, i32 0, i32 5
  store i64 3, ptr %108, align 8, !tbaa !27
  %109 = load i64, ptr %16, align 8, !tbaa !7
  %110 = call i32 @ZSTD_isError(i64 noundef %109)
  %111 = icmp ne i32 %110, 0
  br i1 %111, label %112, label %114

112:                                              ; preds = %104
  %113 = load i64, ptr %16, align 8, !tbaa !7
  store i64 %113, ptr %6, align 8
  store i32 1, ptr %13, align 4
  br label %121

114:                                              ; preds = %104
  %115 = load ptr, ptr %8, align 8, !tbaa !3
  %116 = load i64, ptr %16, align 8, !tbaa !7
  %117 = getelementptr inbounds nuw i8, ptr %115, i64 %116
  %118 = load ptr, ptr %7, align 8, !tbaa !25
  %119 = getelementptr inbounds nuw %struct.ZSTDv03_Dctx_s, ptr %118, i32 0, i32 3
  store ptr %117, ptr %119, align 8, !tbaa !29
  %120 = load i64, ptr %16, align 8, !tbaa !7
  store i64 %120, ptr %6, align 8
  store i32 1, ptr %13, align 4
  br label %121

121:                                              ; preds = %114, %112, %103, %101
  call void @llvm.lifetime.end.p0(i64 8, ptr %16) #9
  br label %122

122:                                              ; preds = %121, %83, %49, %22
  %123 = load i64, ptr %6, align 8
  ret i64 %123
}

; Function Attrs: nounwind uwtable
define i64 @ZSTDv03_decompressContinue(ptr noundef %0, ptr noundef %1, i64 noundef %2, ptr noundef %3, i64 noundef %4) #0 {
  %6 = alloca ptr, align 8
  %7 = alloca ptr, align 8
  %8 = alloca i64, align 8
  %9 = alloca ptr, align 8
  %10 = alloca i64, align 8
  store ptr %0, ptr %6, align 8, !tbaa !25
  store ptr %1, ptr %7, align 8, !tbaa !3
  store i64 %2, ptr %8, align 8, !tbaa !7
  store ptr %3, ptr %9, align 8, !tbaa !3
  store i64 %4, ptr %10, align 8, !tbaa !7
  %11 = load ptr, ptr %6, align 8, !tbaa !25
  %12 = load ptr, ptr %7, align 8, !tbaa !3
  %13 = load i64, ptr %8, align 8, !tbaa !7
  %14 = load ptr, ptr %9, align 8, !tbaa !3
  %15 = load i64, ptr %10, align 8, !tbaa !7
  %16 = call i64 @ZSTD_decompressContinue(ptr noundef %11, ptr noundef %12, i64 noundef %13, ptr noundef %14, i64 noundef %15)
  ret i64 %16
}