; Function Attrs: nounwind uwtable
define i64 @ZSTDv03_decompressContinue(ptr noundef %0, ptr noundef %1, i64 noundef %2, ptr noundef %3, i64 noundef %4) local_unnamed_addr #3 {
  %6 = getelementptr inbounds nuw i8, ptr %0, i64 10272
  %7 = load i64, ptr %6, align 8, !tbaa !15
  %.not.i = icmp eq i64 %4, %7
  br i1 %.not.i, label %8, label %ZSTD_decompressContinue.exit

8:                                                ; preds = %5
  %9 = getelementptr inbounds nuw i8, ptr %0, i64 10256
  %10 = load ptr, ptr %9, align 8, !tbaa !17
  %.not43.i = icmp eq ptr %1, %10
  br i1 %.not43.i, label %13, label %11

11:                                               ; preds = %8
  %12 = getelementptr inbounds nuw i8, ptr %0, i64 10264
  store ptr %1, ptr %12, align 8, !tbaa !10
  br label %13

13:                                               ; preds = %11, %8
  %14 = getelementptr inbounds nuw i8, ptr %0, i64 10284
  %15 = load i32, ptr %14, align 4, !tbaa !16
  switch i32 %15, label %38 [
    i32 0, label %16
    i32 1, label %18
  ]

16:                                               ; preds = %13
  %.val.i = load i32, ptr %3, align 1
  %.not46.i = icmp eq i32 %.val.i, -47205085
  br i1 %.not46.i, label %17, label %ZSTD_decompressContinue.exit

17:                                               ; preds = %16
  store i32 1, ptr %14, align 4, !tbaa !16
  store i64 3, ptr %6, align 8, !tbaa !15
  br label %ZSTD_decompressContinue.exit

18:                                               ; preds = %13
  %19 = load i8, ptr %3, align 1, !tbaa !7
  %20 = zext i8 %19 to i32
  %21 = lshr i32 %20, 6
  switch i32 %21, label %22 [
    i32 3, label %ZSTD_getcBlockSize.exit.i
    i32 2, label %35
  ]

22:                                               ; preds = %18
  %23 = shl nuw nsw i32 %20, 16
  %24 = and i32 %23, 458752
  %25 = getelementptr inbounds nuw i8, ptr %3, i64 2
  %26 = load i8, ptr %25, align 1, !tbaa !7
  %27 = zext i8 %26 to i32
  %28 = or disjoint i32 %24, %27
  %29 = getelementptr inbounds nuw i8, ptr %3, i64 1
  %30 = load i8, ptr %29, align 1, !tbaa !7
  %31 = zext i8 %30 to i32
  %32 = shl nuw nsw i32 %31, 8
  %33 = or disjoint i32 %32, %28
  %34 = zext nneg i32 %33 to i64
  br label %35

ZSTD_getcBlockSize.exit.i:                        ; preds = %18
  store i64 0, ptr %6, align 8, !tbaa !15
  br label %37

35:                                               ; preds = %22, %18
  %.0.i.ph.i = phi i64 [ %34, %22 ], [ 1, %18 ]
  store i64 %.0.i.ph.i, ptr %6, align 8, !tbaa !15
  %36 = getelementptr inbounds nuw i8, ptr %0, i64 10280
  store i32 %21, ptr %36, align 8, !tbaa !18
  br label %37

37:                                               ; preds = %35, %ZSTD_getcBlockSize.exit.i
  %storemerge.i = phi i32 [ 2, %35 ], [ 0, %ZSTD_getcBlockSize.exit.i ]
  store i32 %storemerge.i, ptr %14, align 4, !tbaa !16
  br label %ZSTD_decompressContinue.exit

38:                                               ; preds = %13
  %39 = getelementptr inbounds nuw i8, ptr %0, i64 10280
  %40 = load i32, ptr %39, align 8, !tbaa !18
  switch i32 %40, label %ZSTD_decompressContinue.exit [
    i32 0, label %41
    i32 1, label %43
    i32 3, label %ZSTD_copyUncompressedBlock.exit.thread.i
  ]

41:                                               ; preds = %38
  %42 = tail call fastcc i64 @ZSTD_decompressBlock(ptr noundef nonnull %0, ptr noundef %1, i64 noundef %2, ptr noundef %3, i64 noundef %4)
  br label %ZSTD_copyUncompressedBlock.exit.i

43:                                               ; preds = %38
  %44 = icmp ugt i64 %4, %2
  br i1 %44, label %ZSTD_copyUncompressedBlock.exit.thread54.i, label %45

ZSTD_copyUncompressedBlock.exit.thread54.i:       ; preds = %43
  store i32 1, ptr %14, align 4, !tbaa !16
  store i64 3, ptr %6, align 8, !tbaa !15
  br label %ZSTD_decompressContinue.exit

45:                                               ; preds = %43
  %.not.i.i = icmp eq i64 %4, 0
  br i1 %.not.i.i, label %ZSTD_copyUncompressedBlock.exit.thread.i, label %46

46:                                               ; preds = %45
  tail call void @llvm.memcpy.p0.p0.i64(ptr align 1 %1, ptr readonly align 1 %3, i64 %4, i1 false)
  br label %ZSTD_copyUncompressedBlock.exit.i

ZSTD_copyUncompressedBlock.exit.thread.i:         ; preds = %45, %38
  store i32 1, ptr %14, align 4, !tbaa !16
  store i64 3, ptr %6, align 8, !tbaa !15
  br label %48

ZSTD_copyUncompressedBlock.exit.i:                ; preds = %46, %41
  %.0.i = phi i64 [ %42, %41 ], [ %4, %46 ]
  store i32 1, ptr %14, align 4, !tbaa !16
  store i64 3, ptr %6, align 8, !tbaa !15
  %47 = icmp ult i64 %.0.i, -119
  br i1 %47, label %48, label %ZSTD_decompressContinue.exit

48:                                               ; preds = %ZSTD_copyUncompressedBlock.exit.i, %ZSTD_copyUncompressedBlock.exit.thread.i
  %.053.i = phi i64 [ 0, %ZSTD_copyUncompressedBlock.exit.thread.i ], [ %.0.i, %ZSTD_copyUncompressedBlock.exit.i ]
  %49 = getelementptr inbounds nuw i8, ptr %1, i64 %.053.i
  store ptr %49, ptr %9, align 8, !tbaa !17
  br label %ZSTD_decompressContinue.exit

ZSTD_decompressContinue.exit:                     ; preds = %5, %16, %17, %37, %38, %ZSTD_copyUncompressedBlock.exit.thread54.i, %ZSTD_copyUncompressedBlock.exit.i, %48
  %.039.i = phi i64 [ 0, %37 ], [ -72, %5 ], [ 0, %17 ], [ -10, %16 ], [ %.053.i, %48 ], [ -1, %38 ], [ %.0.i, %ZSTD_copyUncompressedBlock.exit.i ], [ -70, %ZSTD_copyUncompressedBlock.exit.thread54.i ]
  ret i64 %.039.i
}